target datalayout = "e-m:e-p270:32:32-p271:32:32-p272:64:64-i64:64-i128:128-f80:128-n8:16:32:64-S128"
target triple = "x86_64-pc-linux-gnu"

%struct.H5G_loc_t = type { ptr, ptr }
%struct.H5G_loc_fbi_t = type { i32, i32, i64, ptr }
%struct.H5O_link_t = type { i32, i8, i64, i32, ptr, %union.anon }
%union.anon = type { %struct.H5O_link_ud_t }
%struct.H5O_link_ud_t = type { ptr, i64 }

@H5G_init_g = external global i8, align 1
@H5_libterm_g = external global i8, align 1
@.str = private unnamed_addr constant [100 x i8] c"generated/home/dtcxzyw/WorkSpace/Projects/compilers/llvm-opt-benchmark/bench/hdf5/hdf5/src/H5Gloc.c\00", align 1
@H5E_CANTINIT_g = external global i64, align 8
@H5E_SYM_g = external global i64, align 8
@H5E_CANTRELEASE_g = external global i64, align 8
@H5E_NOTFOUND_g = external global i64, align 8
@__func__.H5G__loc_find_by_idx_cb = private unnamed_addr constant [24 x i8] c"H5G__loc_find_by_idx_cb\00", align 1
@.str.34 = private unnamed_addr constant [20 x i8] c"group doesn't exist\00", align 1
@.str.35 = private unnamed_addr constant [15 x i8] c"link not found\00", align 1
@.str.36 = private unnamed_addr constant [34 x i8] c"cannot initialize object location\00", align 1
@H5E_LINK_g = external global i64, align 8
@H5E_TRAVERSE_g = external global i64, align 8
@.str.37 = private unnamed_addr constant [30 x i8] c"special link traversal failed\00", align 1
@.str.38 = private unnamed_addr constant [20 x i8] c"can't free location\00", align 1

; Function Attrs: nounwind uwtable
define internal i32 @H5G__loc_find_by_idx_cb(ptr noundef %0, ptr noundef %1, ptr noundef %2, ptr noundef %3, ptr noundef %4, ptr noundef %5) #0 {
  %7 = alloca ptr, align 8
  %8 = alloca ptr, align 8
  %9 = alloca ptr, align 8
  %10 = alloca ptr, align 8
  %11 = alloca ptr, align 8
  %12 = alloca ptr, align 8
  %13 = alloca ptr, align 8
  %14 = alloca %struct.H5O_link_t, align 8
  %15 = alloca i8, align 1
  %16 = alloca i8, align 1
  %17 = alloca i8, align 1
  %18 = alloca i32, align 4
  %19 = alloca i8, align 1
  store ptr %0, ptr %7, align 8, !tbaa !9
  store ptr %1, ptr %8, align 8, !tbaa !32
  store ptr %2, ptr %9, align 8, !tbaa !37
  store ptr %3, ptr %10, align 8, !tbaa !9
  store ptr %4, ptr %11, align 8, !tbaa !3
  store ptr %5, ptr %12, align 8, !tbaa !39
  call void @llvm.lifetime.start.p0(i64 8, ptr %13) #7
  %20 = load ptr, ptr %11, align 8, !tbaa !3
  store ptr %20, ptr %13, align 8, !tbaa !3
  call void @llvm.lifetime.start.p0(i64 48, ptr %14) #7
  call void @llvm.lifetime.start.p0(i64 1, ptr %15) #7
  store i8 0, ptr %15, align 1, !tbaa !11
  call void @llvm.lifetime.start.p0(i64 1, ptr %16) #7
  store i8 0, ptr %16, align 1, !tbaa !11
  call void @llvm.lifetime.start.p0(i64 1, ptr %17) #7
  store i8 0, ptr %17, align 1, !tbaa !11
  call void @llvm.lifetime.start.p0(i64 4, ptr %18) #7
  store i32 0, ptr %18, align 4, !tbaa !7
  call void @llvm.lifetime.start.p0(i64 1, ptr %19) #7
  store i8 0, ptr %19, align 1, !tbaa !11
  %21 = load i8, ptr @H5G_init_g, align 1, !tbaa !11, !range !13, !noundef !14
  %22 = trunc i8 %21 to i1
  br i1 %22, label %27, label %23

23:                                               ; preds = %6
  %24 = load i8, ptr @H5_libterm_g, align 1, !tbaa !11, !range !13, !noundef !14
  %25 = trunc i8 %24 to i1
  %26 = xor i1 %25, true
  br label %27

27:                                               ; preds = %23, %6
  %28 = phi i1 [ true, %6 ], [ %26, %23 ]
  %29 = xor i1 %28, true
  %30 = xor i1 %29, true
  %31 = zext i1 %30 to i32
  %32 = sext i32 %31 to i64
  %33 = call i64 @llvm.expect.i64(i64 %32, i64 1)
  %34 = icmp ne i64 %33, 0
  br i1 %34, label %35, label %180

35:                                               ; preds = %27
  %36 = load ptr, ptr %10, align 8, !tbaa !9
  %37 = icmp eq ptr %36, null
  br i1 %37, label %38, label %57

38:                                               ; preds = %35
  br label %39

39:                                               ; preds = %38
  br label %40

40:                                               ; preds = %39
  br label %41

41:                                               ; preds = %40
  %42 = load i64, ptr @H5E_SYM_g, align 8, !tbaa !15
  %43 = load i64, ptr @H5E_NOTFOUND_g, align 8, !tbaa !15
  %44 = call i32 (ptr, ptr, i32, i64, i64, ptr, ...) @H5E_printf_stack(ptr noundef @.str, ptr noundef @__func__.H5G__loc_find_by_idx_cb, i32 noundef 456, i64 noundef %42, i64 noundef %43, ptr noundef @.str.34)
  br label %45

45:                                               ; preds = %41
  br label %46

46:                                               ; preds = %45
  store i8 1, ptr %19, align 1, !tbaa !11
  %47 = load i8, ptr %19, align 1, !tbaa !11, !range !13, !noundef !14
  %48 = trunc i8 %47 to i1
  %49 = zext i1 %48 to i8
  store i8 %49, ptr %19, align 1, !tbaa !11
  br label %50

50:                                               ; preds = %46
  br label %51

51:                                               ; preds = %50
  br label %52

52:                                               ; preds = %51
  store i32 -1, ptr %18, align 4, !tbaa !7
  br label %144

53:                                               ; No predecessors!
  br label %54

54:                                               ; preds = %53
  br label %55

55:                                               ; preds = %54
  br label %56

56:                                               ; preds = %55
  br label %57

57:                                               ; preds = %56, %35
  %58 = load ptr, ptr %10, align 8, !tbaa !9
  %59 = getelementptr inbounds nuw %struct.H5G_loc_t, ptr %58, i32 0, i32 0
  %60 = load ptr, ptr %59, align 8, !tbaa !21
  %61 = load ptr, ptr %13, align 8, !tbaa !3
  %62 = getelementptr inbounds nuw %struct.H5G_loc_fbi_t, ptr %61, i32 0, i32 0
  %63 = load i32, ptr %62, align 8, !tbaa !41
  %64 = load ptr, ptr %13, align 8, !tbaa !3
  %65 = getelementptr inbounds nuw %struct.H5G_loc_fbi_t, ptr %64, i32 0, i32 1
  %66 = load i32, ptr %65, align 4, !tbaa !43
  %67 = load ptr, ptr %13, align 8, !tbaa !3
  %68 = getelementptr inbounds nuw %struct.H5G_loc_fbi_t, ptr %67, i32 0, i32 2
  %69 = load i64, ptr %68, align 8, !tbaa !44
  %70 = call i32 @H5G_obj_lookup_by_idx(ptr noundef %60, i32 noundef %63, i32 noundef %66, i64 noundef %69, ptr noundef %14)
  %71 = icmp slt i32 %70, 0
  br i1 %71, label %72, label %91

72:                                               ; preds = %57
  br label %73

73:                                               ; preds = %72
  br label %74

74:                                               ; preds = %73
  br label %75

75:                                               ; preds = %74
  %76 = load i64, ptr @H5E_SYM_g, align 8, !tbaa !15
  %77 = load i64, ptr @H5E_NOTFOUND_g, align 8, !tbaa !15
  %78 = call i32 (ptr, ptr, i32, i64, i64, ptr, ...) @H5E_printf_stack(ptr noundef @.str, ptr noundef @__func__.H5G__loc_find_by_idx_cb, i32 noundef 460, i64 noundef %76, i64 noundef %77, ptr noundef @.str.35)
  br label %79

79:                                               ; preds = %75
  br label %80

80:                                               ; preds = %79
  store i8 1, ptr %19, align 1, !tbaa !11
  %81 = load i8, ptr %19, align 1, !tbaa !11, !range !13, !noundef !14
  %82 = trunc i8 %81 to i1
  %83 = zext i1 %82 to i8
  store i8 %83, ptr %19, align 1, !tbaa !11
  br label %84

84:                                               ; preds = %80
  br label %85

85:                                               ; preds = %84
  br label %86

86:                                               ; preds = %85
  store i32 -1, ptr %18, align 4, !tbaa !7
  br label %144

87:                                               ; No predecessors!
  br label %88

88:                                               ; preds = %87
  br label %89

89:                                               ; preds = %88
  br label %90

90:                                               ; preds = %89
  br label %91

91:                                               ; preds = %90, %57
  store i8 1, ptr %15, align 1, !tbaa !11
  %92 = load ptr, ptr %10, align 8, !tbaa !9
  %93 = load ptr, ptr %13, align 8, !tbaa !3
  %94 = getelementptr inbounds nuw %struct.H5G_loc_fbi_t, ptr %93, i32 0, i32 3
  %95 = load ptr, ptr %94, align 8, !tbaa !45
  %96 = call i32 @H5G__link_to_loc(ptr noundef %92, ptr noundef %14, ptr noundef %95)
  %97 = icmp slt i32 %96, 0
  br i1 %97, label %98, label %117

98:                                               ; preds = %91
  br label %99

99:                                               ; preds = %98
  br label %100

100:                                              ; preds = %99
  br label %101

101:                                              ; preds = %100
  %102 = load i64, ptr @H5E_SYM_g, align 8, !tbaa !15
  %103 = load i64, ptr @H5E_CANTINIT_g, align 8, !tbaa !15
  %104 = call i32 (ptr, ptr, i32, i64, i64, ptr, ...) @H5E_printf_stack(ptr noundef @.str, ptr noundef @__func__.H5G__loc_find_by_idx_cb, i32 noundef 465, i64 noundef %102, i64 noundef %103, ptr noundef @.str.36)
  br label %105

105:                                              ; preds = %101
  br label %106

106:                                              ; preds = %105
  store i8 1, ptr %19, align 1, !tbaa !11
  %107 = load i8, ptr %19, align 1, !tbaa !11, !range !13, !noundef !14
  %108 = trunc i8 %107 to i1
  %109 = zext i1 %108 to i8
  store i8 %109, ptr %19, align 1, !tbaa !11
  br label %110

110:                                              ; preds = %106
  br label %111

111:                                              ; preds = %110
  br label %112

112:                                              ; preds = %111
  store i32 -1, ptr %18, align 4, !tbaa !7
  br label %144

113:                                              ; No predecessors!
  br label %114

114:                                              ; preds = %113
  br label %115

115:                                              ; preds = %114
  br label %116

116:                                              ; preds = %115
  br label %117

117:                                              ; preds = %116, %91
  store i8 1, ptr %16, align 1, !tbaa !11
  %118 = load ptr, ptr %10, align 8, !tbaa !9
  %119 = load ptr, ptr %13, align 8, !tbaa !3
  %120 = getelementptr inbounds nuw %struct.H5G_loc_fbi_t, ptr %119, i32 0, i32 3
  %121 = load ptr, ptr %120, align 8, !tbaa !45
  %122 = call i32 @H5G__traverse_special(ptr noundef %118, ptr noundef %14, i32 noundef 0, i1 noundef zeroext true, ptr noundef %121, ptr noundef %17)
  %123 = icmp slt i32 %122, 0
  br i1 %123, label %124, label %143

124:                                              ; preds = %117
  br label %125

125:                                              ; preds = %124
  br label %126

126:                                              ; preds = %125
  br label %127

127:                                              ; preds = %126
  %128 = load i64, ptr @H5E_LINK_g, align 8, !tbaa !15
  %129 = load i64, ptr @H5E_TRAVERSE_g, align 8, !tbaa !15
  %130 = call i32 (ptr, ptr, i32, i64, i64, ptr, ...) @H5E_printf_stack(ptr noundef @.str, ptr noundef @__func__.H5G__loc_find_by_idx_cb, i32 noundef 472, i64 noundef %128, i64 noundef %129, ptr noundef @.str.37)
  br label %131

131:                                              ; preds = %127
  br label %132

132:                                              ; preds = %131
  store i8 1, ptr %19, align 1, !tbaa !11
  %133 = load i8, ptr %19, align 1, !tbaa !11, !range !13, !noundef !14
  %134 = trunc i8 %133 to i1
  %135 = zext i1 %134 to i8
  store i8 %135, ptr %19, align 1, !tbaa !11
  br label %136

136:                                              ; preds = %132
  br label %137

137:                                              ; preds = %136
  br label %138

138:                                              ; preds = %137
  store i32 -1, ptr %18, align 4, !tbaa !7
  br label %144

139:                                              ; No predecessors!
  br label %140

140:                                              ; preds = %139
  br label %141

141:                                              ; preds = %140
  br label %142

142:                                              ; preds = %141
  br label %143

143:                                              ; preds = %142, %117
  br label %144

144:                                              ; preds = %143, %138, %112, %86, %52
  %145 = load i8, ptr %15, align 1, !tbaa !11, !range !13, !noundef !14
  %146 = trunc i8 %145 to i1
  br i1 %146, label %147, label %149

147:                                              ; preds = %144
  %148 = call i32 @H5O_msg_reset(i32 noundef 6, ptr noundef %14)
  br label %149

149:                                              ; preds = %147, %144
  %150 = load i32, ptr %18, align 4, !tbaa !7
  %151 = icmp slt i32 %150, 0
  br i1 %151, label %152, label %178

152:                                              ; preds = %149
  %153 = load i8, ptr %16, align 1, !tbaa !11, !range !13, !noundef !14
  %154 = trunc i8 %153 to i1
  br i1 %154, label %155, label %178

155:                                              ; preds = %152
  %156 = load ptr, ptr %13, align 8, !tbaa !3
  %157 = getelementptr inbounds nuw %struct.H5G_loc_fbi_t, ptr %156, i32 0, i32 3
  %158 = load ptr, ptr %157, align 8, !tbaa !45
  %159 = call i32 @H5G_loc_free(ptr noundef %158)
  %160 = icmp slt i32 %159, 0
  br i1 %160, label %161, label %177

161:                                              ; preds = %155
  br label %162

162:                                              ; preds = %161
  br label %163

163:                                              ; preds = %162
  br label %164

164:                                              ; preds = %163
  %165 = load i64, ptr @H5E_SYM_g, align 8, !tbaa !15
  %166 = load i64, ptr @H5E_CANTRELEASE_g, align 8, !tbaa !15
  %167 = call i32 (ptr, ptr, i32, i64, i64, ptr, ...) @H5E_printf_stack(ptr noundef @.str, ptr noundef @__func__.H5G__loc_find_by_idx_cb, i32 noundef 482, i64 noundef %165, i64 noundef %166, ptr noundef @.str.38)
  br label %168

168:                                              ; preds = %164
  br label %169

169:                                              ; preds = %168
  store i8 1, ptr %19, align 1, !tbaa !11
  %170 = load i8, ptr %19, align 1, !tbaa !11, !range !13, !noundef !14
  %171 = trunc i8 %170 to i1
  %172 = zext i1 %171 to i8
  store i8 %172, ptr %19, align 1, !tbaa !11
  br label %173

173:                                              ; preds = %169
  br label %174

174:                                              ; preds = %173
  store i32 -1, ptr %18, align 4, !tbaa !7
  br label %175

175:                                              ; preds = %174
  br label %176

176:                                              ; preds = %175
  br label %177

177:                                              ; preds = %176, %155
  br label %178

178:                                              ; preds = %177, %152, %149
  %179 = load ptr, ptr %12, align 8, !tbaa !39
  store i32 0, ptr %179, align 4, !tbaa !7
  br label %180

180:                                              ; preds = %178, %27
  %181 = load i32, ptr %18, align 4, !tbaa !7
  call void @llvm.lifetime.end.p0(i64 1, ptr %19) #7
  call void @llvm.lifetime.end.p0(i64 4, ptr %18) #7
  call void @llvm.lifetime.end.p0(i64 1, ptr %17) #7
  call void @llvm.lifetime.end.p0(i64 1, ptr %16) #7
  call void @llvm.lifetime.end.p0(i64 1, ptr %15) #7
  call void @llvm.lifetime.end.p0(i64 48, ptr %14) #7
  call void @llvm.lifetime.end.p0(i64 8, ptr %13) #7
  ret i32 %181
}